target datalayout = "e-m:e-p270:32:32-p271:32:32-p272:64:64-i64:64-i128:128-f80:128-n8:16:32:64-S128"
target triple = "x86_64-pc-linux-gnu"

%struct.Abc_Ntk_t_ = type { i32, i32, ptr, ptr, ptr, ptr, ptr, ptr, ptr, ptr, ptr, ptr, ptr, [11 x i32], i32, i32, i32, i32, ptr, i32, ptr, ptr, i32, i32, i32, double, i32, %struct.Vec_Int_t_, ptr, ptr, ptr, ptr, ptr, float, i32, ptr, ptr, ptr, ptr, ptr, ptr, ptr, ptr, ptr, ptr, ptr, ptr, ptr, ptr, ptr, ptr, ptr, ptr, ptr, ptr, ptr, ptr }
%struct.Vec_Int_t_ = type { i32, i32, ptr }
%struct.Abc_Obj_t_ = type { ptr, ptr, i32, i32, %struct.Vec_Int_t_, %struct.Vec_Int_t_, %union.anon, %union.anon.0 }
%union.anon = type { ptr }
%union.anon.0 = type { ptr }
%struct.Vec_Ptr_t_ = type { i32, i32, ptr }

; Function Attrs: inlinehint nounwind uwtable
define internal ptr @Vec_PtrEntry(ptr noundef %0, i32 noundef %1) #3 {
  %3 = alloca ptr, align 8
  %4 = alloca i32, align 4
  store ptr %0, ptr %3, align 8, !tbaa !40
  store i32 %1, ptr %4, align 4, !tbaa !10
  %5 = load ptr, ptr %3, align 8, !tbaa !40
  %6 = getelementptr inbounds nuw %struct.Vec_Ptr_t_, ptr %5, i32 0, i32 2
  %7 = load ptr, ptr %6, align 8, !tbaa !69
  %8 = load i32, ptr %4, align 4, !tbaa !10
  %9 = sext i32 %8 to i64
  %10 = getelementptr inbounds ptr, ptr %7, i64 %9
  %11 = load ptr, ptr %10, align 8, !tbaa !70
  ret ptr %11
}

; Function Attrs: inlinehint nounwind uwtable
define internal ptr @Abc_NtkObj(ptr noundef %0, i32 noundef %1) #3 {
  %3 = alloca ptr, align 8
  %4 = alloca i32, align 4
  store ptr %0, ptr %3, align 8, !tbaa !3
  store i32 %1, ptr %4, align 4, !tbaa !10
  %5 = load ptr, ptr %3, align 8, !tbaa !3
  %6 = getelementptr inbounds nuw %struct.Abc_Ntk_t_, ptr %5, i32 0, i32 5
  %7 = load ptr, ptr %6, align 8, !tbaa !31
  %8 = load i32, ptr %4, align 4, !tbaa !10
  %9 = call ptr @Vec_PtrEntry(ptr noundef %7, i32 noundef %8)
  ret ptr %9
}

; Function Attrs: inlinehint nounwind uwtable
define internal i32 @Vec_IntEntry(ptr noundef %0, i32 noundef %1) #3 {
  %3 = alloca ptr, align 8
  %4 = alloca i32, align 4
  store ptr %0, ptr %3, align 8, !tbaa !44
  store i32 %1, ptr %4, align 4, !tbaa !10
  %5 = load ptr, ptr %3, align 8, !tbaa !44
  %6 = getelementptr inbounds nuw %struct.Vec_Int_t_, ptr %5, i32 0, i32 2
  %7 = load ptr, ptr %6, align 8, !tbaa !52
  %8 = load i32, ptr %4, align 4, !tbaa !10
  %9 = sext i32 %8 to i64
  %10 = getelementptr inbounds i32, ptr %7, i64 %9
  %11 = load i32, ptr %10, align 4, !tbaa !10
  ret i32 %11
}

; Function Attrs: inlinehint nounwind uwtable
define internal i32 @Vec_IntSize(ptr noundef %0) #3 {
  %2 = alloca ptr, align 8
  store ptr %0, ptr %2, align 8, !tbaa !44
  %3 = load ptr, ptr %2, align 8, !tbaa !44
  %4 = getelementptr inbounds nuw %struct.Vec_Int_t_, ptr %3, i32 0, i32 1
  %5 = load i32, ptr %4, align 4, !tbaa !50
  ret i32 %5
}

; Function Attrs: nounwind uwtable
define i32 @Abc_NtkFinCheckTypesOk2(ptr noundef %0) #0 {
  %2 = alloca i32, align 4
  %3 = alloca ptr, align 8
  %4 = alloca ptr, align 8
  %5 = alloca i32, align 4
  %6 = alloca i32, align 4
  %7 = alloca i32, align 4
  %8 = alloca ptr, align 8
  %9 = alloca ptr, align 8
  %10 = alloca ptr, align 8
  %11 = alloca i32, align 4
  store ptr %0, ptr %3, align 8, !tbaa !3
  call void @llvm.lifetime.start.p0(i64 8, ptr %4) #14
  %12 = load ptr, ptr %3, align 8, !tbaa !3
  %13 = getelementptr inbounds nuw %struct.Abc_Ntk_t_, ptr %12, i32 0, i32 30
  %14 = load ptr, ptr %13, align 8, !tbaa !12
  store ptr %14, ptr %4, align 8, !tbaa !27
  call void @llvm.lifetime.start.p0(i64 4, ptr %5) #14
  call void @llvm.lifetime.start.p0(i64 4, ptr %6) #14
  call void @llvm.lifetime.start.p0(i64 4, ptr %7) #14
  store i32 2, ptr %5, align 4, !tbaa !10
  br label %15

15:                                               ; preds = %68, %1
  %16 = load i32, ptr %5, align 4, !tbaa !10
  %17 = add nsw i32 %16, 1
  %18 = load ptr, ptr %3, align 8, !tbaa !3
  %19 = getelementptr inbounds nuw %struct.Abc_Ntk_t_, ptr %18, i32 0, i32 55
  %20 = load ptr, ptr %19, align 8, !tbaa !212
  %21 = call i32 @Vec_IntSize(ptr noundef %20)
  %22 = icmp slt i32 %17, %21
  br i1 %22, label %23, label %36

23:                                               ; preds = %15
  %24 = load ptr, ptr %3, align 8, !tbaa !3
  %25 = getelementptr inbounds nuw %struct.Abc_Ntk_t_, ptr %24, i32 0, i32 55
  %26 = load ptr, ptr %25, align 8, !tbaa !212
  %27 = load i32, ptr %5, align 4, !tbaa !10
  %28 = call i32 @Vec_IntEntry(ptr noundef %26, i32 noundef %27)
  store i32 %28, ptr %6, align 4, !tbaa !10
  br i1 true, label %29, label %36

29:                                               ; preds = %23
  %30 = load ptr, ptr %3, align 8, !tbaa !3
  %31 = getelementptr inbounds nuw %struct.Abc_Ntk_t_, ptr %30, i32 0, i32 55
  %32 = load ptr, ptr %31, align 8, !tbaa !212
  %33 = load i32, ptr %5, align 4, !tbaa !10
  %34 = add nsw i32 %33, 1
  %35 = call i32 @Vec_IntEntry(ptr noundef %32, i32 noundef %34)
  store i32 %35, ptr %7, align 4, !tbaa !10
  br label %36

36:                                               ; preds = %29, %23, %15
  %37 = phi i1 [ false, %23 ], [ false, %15 ], [ true, %29 ]
  br i1 %37, label %38, label %71

38:                                               ; preds = %36
  call void @llvm.lifetime.start.p0(i64 8, ptr %8) #14
  %39 = load ptr, ptr %3, align 8, !tbaa !3
  %40 = load i32, ptr %6, align 4, !tbaa !10
  %41 = call ptr @Abc_NtkObj(ptr noundef %39, i32 noundef %40)
  store ptr %41, ptr %8, align 8, !tbaa !32
  call void @llvm.lifetime.start.p0(i64 8, ptr %9) #14
  call void @llvm.lifetime.start.p0(i64 8, ptr %10) #14
  %42 = load ptr, ptr %8, align 8, !tbaa !32
  %43 = getelementptr inbounds nuw %struct.Abc_Obj_t_, ptr %42, i32 0, i32 6
  %44 = load ptr, ptr %43, align 8, !tbaa !34
  store ptr %44, ptr %10, align 8, !tbaa !35
  %45 = load i32, ptr %7, align 4, !tbaa !10
  %46 = icmp slt i32 %45, 0
  br i1 %46, label %47, label %48

47:                                               ; preds = %38
  store i32 4, ptr %11, align 4
  br label %65

48:                                               ; preds = %38
  %49 = load ptr, ptr %4, align 8, !tbaa !27
  %50 = load i32, ptr %7, align 4, !tbaa !10
  %51 = call ptr @Mio_LibraryReadGateById(ptr noundef %49, i32 noundef %50)
  store ptr %51, ptr %9, align 8, !tbaa !35
  %52 = load ptr, ptr %9, align 8, !tbaa !35
  %53 = call i32 @Mio_GateReadPinNum(ptr noundef %52)
  %54 = icmp slt i32 %53, 1
  br i1 %54, label %55, label %56

55:                                               ; preds = %48
  store i32 4, ptr %11, align 4
  br label %65

56:                                               ; preds = %48
  %57 = load ptr, ptr %10, align 8, !tbaa !35
  %58 = call i32 @Mio_GateReadPinNum(ptr noundef %57)
  %59 = load ptr, ptr %9, align 8, !tbaa !35
  %60 = call i32 @Mio_GateReadPinNum(ptr noundef %59)
  %61 = icmp ne i32 %58, %60
  br i1 %61, label %62, label %64

62:                                               ; preds = %56
  %63 = load i32, ptr %6, align 4, !tbaa !10
  store i32 %63, ptr %2, align 4
  store i32 1, ptr %11, align 4
  br label %65

64:                                               ; preds = %56
  store i32 0, ptr %11, align 4
  br label %65

65:                                               ; preds = %64, %62, %55, %47
  call void @llvm.lifetime.end.p0(i64 8, ptr %10) #14
  call void @llvm.lifetime.end.p0(i64 8, ptr %9) #14
  call void @llvm.lifetime.end.p0(i64 8, ptr %8) #14
  %66 = load i32, ptr %11, align 4
  switch i32 %66, label %72 [
    i32 0, label %67
    i32 4, label %68
  ]

67:                                               ; preds = %65
  br label %68

68:                                               ; preds = %67, %65
  %69 = load i32, ptr %5, align 4, !tbaa !10
  %70 = add nsw i32 %69, 2
  store i32 %70, ptr %5, align 4, !tbaa !10
  br label %15, !llvm.loop !213

71:                                               ; preds = %36
  store i32 0, ptr %2, align 4
  store i32 1, ptr %11, align 4
  br label %72

72:                                               ; preds = %71, %65
  call void @llvm.lifetime.end.p0(i64 4, ptr %7) #14
  call void @llvm.lifetime.end.p0(i64 4, ptr %6) #14
  call void @llvm.lifetime.end.p0(i64 4, ptr %5) #14
  call void @llvm.lifetime.end.p0(i64 8, ptr %4) #14
  %73 = load i32, ptr %2, align 4
  ret i32 %73
}