; Function Attrs: nounwind uwtable
define i32 @Abc_NtkFinCheckTypesOk2(ptr noundef readonly captures(none) %0) local_unnamed_addr #0 {
  %2 = getelementptr inbounds nuw i8, ptr %0, i64 256
  %3 = load ptr, ptr %2, align 8, !tbaa !3
  %4 = getelementptr inbounds nuw i8, ptr %0, i64 448
  %5 = load ptr, ptr %4, align 8, !tbaa !186
  %6 = getelementptr i8, ptr %5, i64 4
  %.val2529 = load i32, ptr %6, align 4, !tbaa !37
  %7 = icmp sgt i32 %.val2529, 3
  br i1 %7, label %.lr.ph, label %.critedge

.lr.ph:                                           ; preds = %1
  %8 = getelementptr i8, ptr %0, i64 32
  br label %9

9:                                                ; preds = %.lr.ph, %select.unfold
  %indvars.iv33 = phi i64 [ 2, %.lr.ph ], [ %indvars.iv.next34, %select.unfold ]
  %indvars.iv = phi i64 [ 3, %.lr.ph ], [ %indvars.iv.next, %select.unfold ]
  %10 = phi ptr [ %5, %.lr.ph ], [ %30, %select.unfold ]
  %11 = getelementptr i8, ptr %10, i64 8
  %.val24 = load ptr, ptr %11, align 8, !tbaa !36
  %12 = getelementptr inbounds nuw i32, ptr %.val24, i64 %indvars.iv33
  %13 = load i32, ptr %12, align 4, !tbaa !34
  %14 = getelementptr inbounds nuw i32, ptr %.val24, i64 %indvars.iv
  %15 = load i32, ptr %14, align 4, !tbaa !34
  %.val = load ptr, ptr %8, align 8, !tbaa !24
  %16 = getelementptr i8, ptr %.val, i64 8
  %.val.val = load ptr, ptr %16, align 8, !tbaa !27
  %17 = sext i32 %13 to i64
  %18 = getelementptr inbounds ptr, ptr %.val.val, i64 %17
  %19 = load ptr, ptr %18, align 8, !tbaa !28
  %20 = getelementptr inbounds nuw i8, ptr %19, i64 56
  %21 = load ptr, ptr %20, align 8, !tbaa !29
  %22 = icmp slt i32 %15, 0
  br i1 %22, label %select.unfold, label %23

23:                                               ; preds = %9
  %24 = tail call ptr @Mio_LibraryReadGateById(ptr noundef %3, i32 noundef %15) #32
  %25 = tail call i32 @Mio_GateReadPinNum(ptr noundef %24) #32
  %26 = icmp slt i32 %25, 1
  br i1 %26, label %select.unfold, label %27

27:                                               ; preds = %23
  %28 = tail call i32 @Mio_GateReadPinNum(ptr noundef %21) #32
  %29 = tail call i32 @Mio_GateReadPinNum(ptr noundef %24) #32
  %.not = icmp eq i32 %28, %29
  br i1 %.not, label %select.unfold, label %.critedge

select.unfold:                                    ; preds = %27, %9, %23
  %indvars.iv.next34 = add nuw nsw i64 %indvars.iv33, 2
  %30 = load ptr, ptr %4, align 8, !tbaa !186
  %31 = getelementptr i8, ptr %30, i64 4
  %.val25 = load i32, ptr %31, align 4, !tbaa !37
  %32 = trunc i64 %indvars.iv.next34 to i32
  %33 = or disjoint i32 %32, 1
  %34 = icmp slt i32 %33, %.val25
  %indvars.iv.next = add nuw i64 %indvars.iv, 2
  br i1 %34, label %9, label %.critedge, !llvm.loop !187

.critedge:                                        ; preds = %select.unfold, %27, %1
  %.2 = phi i32 [ 0, %1 ], [ %13, %27 ], [ 0, %select.unfold ]
  ret i32 %.2
}